Certificate:
    Data:
        Version: 3 (0x2)
        Serial Number: 4099 (0x1003)
        Signature Algorithm: ecdsa-with-SHA384
        Issuer: C = CN, O = Nationz Technologies Inc, OU = Nationz TPM Device, CN = Nationz TPM Root CA
        Validity
            Not Before: May 13 00:00:00 2017 GMT
            Not After : May 13 00:00:00 2042 GMT
        Subject: C = CN, O = Nationz Technologies Inc, OU = Nationz TPM Device, CN = Nationz TPM Manufacturing CA 001
        Subject Public Key Info:
            Public Key Algorithm: id-ecPublicKey
                Public-Key: (384 bit)
                pub:
                    04:0f:2b:8b:8b:0c:8c:ae:51:a0:5f:4b:38:0f:1e:
                    66:cf:59:1c:a2:75:75:74:ff:c3:6f:15:b7:07:ba:
                    c8:10:38:3a:9e:70:d2:7d:28:df:ef:4d:3c:f2:89:
                    7e:cc:35:60:3a:1e:29:9f:64:c2:fa:71:4d:53:3b:
                    90:1b:69:28:ec:3a:35:14:6a:6d:40:24:cc:07:d8:
                    a8:8c:29:1c:f3:e1:37:6e:49:48:e5:e1:97:76:e7:
                    df:a7:52:09:f5:02:7e
                ASN1 OID: secp384r1
                NIST CURVE: P-384
        X509v3 extensions:
            Authority Information Access: 
                CA Issuers - URI:http://pki.nationz.com.cn/EkRootCA/EkRootCA.crt
            X509v3 Subject Key Identifier: 
                02:2C:BE:ED:5D:77:06:0F:28:33:E9:D5:37:6B:A8:BC:30:8C:D9:BA
            X509v3 CRL Distribution Points: 
                Full Name:
                  URI:http://pki.nationz.com.cn/EkRootCA/EkRootCA.crl
            X509v3 Authority Key Identifier: 
                3A:BC:FF:08:DF:5E:01:0C:2B:64:07:8B:C7:CE:95:06:F4:08:FD:E4
            X509v3 Extended Key Usage: 
                2.23.133.8.1
            X509v3 Key Usage: critical
                Certificate Sign, CRL Sign
            X509v3 Basic Constraints: critical
                CA:TRUE, pathlen:0
    Signature Algorithm: ecdsa-with-SHA384
    Signature Value:
        30:65:02:30:44:bf:4f:a3:87:73:3a:90:9a:cd:39:b5:ef:25:
        1e:d8:32:4d:81:dc:af:69:6a:de:92:4c:ef:28:d7:bd:90:e0:
        be:47:6d:44:6a:63:04:a9:f0:da:96:f5:b1:a7:f3:11:02:31:
        00:df:39:9d:5a:ef:5c:0c:7c:44:89:0b:dc:e0:f1:96:67:79:
        1c:bd:7c:67:fc:db:19:07:fe:b5:71:5b:56:1c:81:76:59:af:
        03:f2:59:1d:3d:f1:9d:34:4d:88:c9:fd:7a
-----BEGIN CERTIFICATE-----
MIIDGzCCAqGgAwIBAgICEAMwCgYIKoZIzj0EAwMwazELMAkGA1UEBhMCQ04xITAf
BgNVBAoMGE5hdGlvbnogVGVjaG5vbG9naWVzIEluYzEbMBkGA1UECwwSTmF0aW9u
eiBUUE0gRGV2aWNlMRwwGgYDVQQDDBNOYXRpb256IFRQTSBSb290IENBMB4XDTE3
MDUxMzAwMDAwMFoXDTQyMDUxMzAwMDAwMFoweDELMAkGA1UEBhMCQ04xITAfBgNV
BAoMGE5hdGlvbnogVGVjaG5vbG9naWVzIEluYzEbMBkGA1UECwwSTmF0aW9ueiBU
UE0gRGV2aWNlMSkwJwYDVQQDDCBOYXRpb256IFRQTSBNYW51ZmFjdHVyaW5nIENB
IDAwMTB2MBAGByqGSM49AgEGBSuBBAAiA2IABA8ri4sMjK5RoF9LOA8eZs9ZHKJ1
dXT/w28Vtwe6yBA4Op5w0n0o3+9NPPKJfsw1YDoeKZ9kwvpxTVM7kBtpKOw6NRRq
bUAkzAfYqIwpHPPhN25JSOXhl3bn36dSCfUCfqOCAQkwggEFMEsGCCsGAQUFBwEB
BD8wPTA7BggrBgEFBQcwAoYvaHR0cDovL3BraS5uYXRpb256LmNvbS5jbi9Fa1Jv
b3RDQS9Fa1Jvb3RDQS5jcnQwHQYDVR0OBBYEFAIsvu1ddwYPKDPp1TdrqLwwjNm6
MEAGA1UdHwQ5MDcwNaAzoDGGL2h0dHA6Ly9wa2kubmF0aW9uei5jb20uY24vRWtS
b290Q0EvRWtSb290Q0EuY3JsMB8GA1UdIwQYMBaAFDq8/wjfXgEMK2QHi8fOlQb0
CP3kMBAGA1UdJQQJMAcGBWeBBQgBMA4GA1UdDwEB/wQEAwIBBjASBgNVHRMBAf8E
CDAGAQH/AgEAMAoGCCqGSM49BAMDA2gAMGUCMES/T6OHczqQms05te8lHtgyTYHc
r2lq3pJM7yjXvZDgvkdtRGpjBKnw2pb1safzEQIxAN85nVrvXAx8RIkL3ODxlmd5
HL18Z/zbGQf+tXFbVhyBdlmvA/JZHT3xnTRNiMn9eg==
-----END CERTIFICATE-----
